target datalayout = "e-m:e-p270:32:32-p271:32:32-p272:64:64-i64:64-i128:128-f80:128-n8:16:32:64-S128"
target triple = "x86_64-pc-linux-gnu"

%struct.wscbor_chunk_t = type { ptr, i32, i32, i32, ptr, ptr, i32, i8, i64 }

; Function Attrs: nounwind null_pointer_is_valid sspstrong uwtable
define zeroext i1 @wscbor_is_indefinite_break(ptr noundef %0) #6 {
  %2 = alloca ptr, align 8
  store ptr %0, ptr %2, align 8
  %3 = load ptr, ptr %2, align 8
  %4 = getelementptr inbounds nuw %struct.wscbor_chunk_t, ptr %3, i32 0, i32 6
  %5 = load i32, ptr %4, align 8
  %6 = icmp eq i32 %5, 7
  br i1 %6, label %7, label %13

7:                                                ; preds = %1
  %8 = load ptr, ptr %2, align 8
  %9 = getelementptr inbounds nuw %struct.wscbor_chunk_t, ptr %8, i32 0, i32 7
  %10 = load i8, ptr %9, align 4
  %11 = zext i8 %10 to i32
  %12 = icmp eq i32 %11, 31
  br label %13

13:                                               ; preds = %7, %1
  %14 = phi i1 [ false, %1 ], [ %12, %7 ]
  ret i1 %14
}